target datalayout = "e-m:e-p270:32:32-p271:32:32-p272:64:64-i64:64-i128:128-f80:128-n8:16:32:64-S128"
target triple = "x86_64-pc-linux-gnu"

%struct.prov_cipher_ctx_st = type { [16 x i8], [16 x i8], [16 x i8], ptr, %union.anon, i32, i64, i64, i64, i64, i32, i8, i32, ptr, i32, i64, i32, i64, i32, ptr, ptr, ptr }
%union.anon = type { ptr }
%struct.prov_cipher_hw_st = type { ptr, ptr, ptr }

@.str.1 = private unnamed_addr constant [60 x i8] c"../openssl/providers/implementations/ciphers/ciphercommon.c\00", align 1
@__func__.ossl_cipher_generic_initiv = private unnamed_addr constant [27 x i8] c"ossl_cipher_generic_initiv\00", align 1
@__func__.cipher_generic_init_internal = private unnamed_addr constant [29 x i8] c"cipher_generic_init_internal\00", align 1

; Function Attrs: nounwind uwtable
define i32 @ossl_cipher_generic_initiv(ptr noundef %0, ptr noundef %1, i64 noundef %2) #0 {
  %4 = alloca i32, align 4
  %5 = alloca ptr, align 8
  %6 = alloca ptr, align 8
  %7 = alloca i64, align 8
  store ptr %0, ptr %5, align 8, !tbaa !13
  store ptr %1, ptr %6, align 8, !tbaa !25
  store i64 %2, ptr %7, align 8, !tbaa !11
  %8 = load i64, ptr %7, align 8, !tbaa !11
  %9 = load ptr, ptr %5, align 8, !tbaa !13
  %10 = getelementptr inbounds nuw %struct.prov_cipher_ctx_st, ptr %9, i32 0, i32 7
  %11 = load i64, ptr %10, align 8, !tbaa !28
  %12 = icmp ne i64 %8, %11
  br i1 %12, label %16, label %13

13:                                               ; preds = %3
  %14 = load i64, ptr %7, align 8, !tbaa !11
  %15 = icmp ugt i64 %14, 16
  br i1 %15, label %16, label %17

16:                                               ; preds = %13, %3
  call void @ERR_new()
  call void @ERR_set_debug(ptr noundef @.str.1, i32 noundef 707, ptr noundef @__func__.ossl_cipher_generic_initiv)
  call void (i32, i32, ptr, ...) @ERR_set_error(i32 noundef 57, i32 noundef 109, ptr noundef null)
  store i32 0, ptr %4, align 4
  br label %33

17:                                               ; preds = %13
  %18 = load ptr, ptr %5, align 8, !tbaa !13
  %19 = getelementptr inbounds nuw %struct.prov_cipher_ctx_st, ptr %18, i32 0, i32 11
  %20 = load i8, ptr %19, align 4
  %21 = and i8 %20, -5
  %22 = or i8 %21, 4
  store i8 %22, ptr %19, align 4
  %23 = load ptr, ptr %5, align 8, !tbaa !13
  %24 = getelementptr inbounds nuw %struct.prov_cipher_ctx_st, ptr %23, i32 0, i32 2
  %25 = getelementptr inbounds [16 x i8], ptr %24, i64 0, i64 0
  %26 = load ptr, ptr %6, align 8, !tbaa !25
  %27 = load i64, ptr %7, align 8, !tbaa !11
  call void @llvm.memcpy.p0.p0.i64(ptr align 8 %25, ptr align 1 %26, i64 %27, i1 false)
  %28 = load ptr, ptr %5, align 8, !tbaa !13
  %29 = getelementptr inbounds nuw %struct.prov_cipher_ctx_st, ptr %28, i32 0, i32 0
  %30 = getelementptr inbounds [16 x i8], ptr %29, i64 0, i64 0
  %31 = load ptr, ptr %6, align 8, !tbaa !25
  %32 = load i64, ptr %7, align 8, !tbaa !11
  call void @llvm.memcpy.p0.p0.i64(ptr align 8 %30, ptr align 1 %31, i64 %32, i1 false)
  store i32 1, ptr %4, align 4
  br label %33

33:                                               ; preds = %17, %16
  %34 = load i32, ptr %4, align 4
  ret i32 %34
}

; Function Attrs: nounwind uwtable
define internal i32 @cipher_generic_init_internal(ptr noundef %0, ptr noundef %1, i64 noundef %2, ptr noundef %3, i64 noundef %4, ptr noundef %5, i32 noundef %6) #0 {
  %8 = alloca i32, align 4
  %9 = alloca ptr, align 8
  %10 = alloca ptr, align 8
  %11 = alloca i64, align 8
  %12 = alloca ptr, align 8
  %13 = alloca i64, align 8
  %14 = alloca ptr, align 8
  %15 = alloca i32, align 4
  store ptr %0, ptr %9, align 8, !tbaa !13
  store ptr %1, ptr %10, align 8, !tbaa !25
  store i64 %2, ptr %11, align 8, !tbaa !11
  store ptr %3, ptr %12, align 8, !tbaa !25
  store i64 %4, ptr %13, align 8, !tbaa !11
  store ptr %5, ptr %14, align 8, !tbaa !7
  store i32 %6, ptr %15, align 4, !tbaa !9
  %16 = load ptr, ptr %9, align 8, !tbaa !13
  %17 = getelementptr inbounds nuw %struct.prov_cipher_ctx_st, ptr %16, i32 0, i32 18
  store i32 0, ptr %17, align 8, !tbaa !22
  %18 = load ptr, ptr %9, align 8, !tbaa !13
  %19 = getelementptr inbounds nuw %struct.prov_cipher_ctx_st, ptr %18, i32 0, i32 9
  store i64 0, ptr %19, align 8, !tbaa !26
  %20 = load ptr, ptr %9, align 8, !tbaa !13
  %21 = getelementptr inbounds nuw %struct.prov_cipher_ctx_st, ptr %20, i32 0, i32 11
  %22 = load i8, ptr %21, align 4
  %23 = and i8 %22, -17
  %24 = or i8 %23, 0
  store i8 %24, ptr %21, align 4
  %25 = load i32, ptr %15, align 4, !tbaa !9
  %26 = icmp ne i32 %25, 0
  %27 = select i1 %26, i32 1, i32 0
  %28 = load ptr, ptr %9, align 8, !tbaa !13
  %29 = getelementptr inbounds nuw %struct.prov_cipher_ctx_st, ptr %28, i32 0, i32 11
  %30 = trunc i32 %27 to i8
  %31 = load i8, ptr %29, align 4
  %32 = and i8 %30, 1
  %33 = shl i8 %32, 1
  %34 = and i8 %31, -3
  %35 = or i8 %34, %33
  store i8 %35, ptr %29, align 4
  %36 = call i32 @ossl_prov_is_running()
  %37 = icmp ne i32 %36, 0
  br i1 %37, label %39, label %38

38:                                               ; preds = %7
  store i32 0, ptr %8, align 4
  br label %138

39:                                               ; preds = %7
  %40 = load ptr, ptr %12, align 8, !tbaa !25
  %41 = icmp ne ptr %40, null
  br i1 %41, label %42, label %55

42:                                               ; preds = %39
  %43 = load ptr, ptr %9, align 8, !tbaa !13
  %44 = getelementptr inbounds nuw %struct.prov_cipher_ctx_st, ptr %43, i32 0, i32 5
  %45 = load i32, ptr %44, align 8, !tbaa !27
  %46 = icmp ne i32 %45, 1
  br i1 %46, label %47, label %55

47:                                               ; preds = %42
  %48 = load ptr, ptr %9, align 8, !tbaa !13
  %49 = load ptr, ptr %12, align 8, !tbaa !25
  %50 = load i64, ptr %13, align 8, !tbaa !11
  %51 = call i32 @ossl_cipher_generic_initiv(ptr noundef %48, ptr noundef %49, i64 noundef %50)
  %52 = icmp ne i32 %51, 0
  br i1 %52, label %54, label %53

53:                                               ; preds = %47
  store i32 0, ptr %8, align 4
  br label %138

54:                                               ; preds = %47
  br label %55

55:                                               ; preds = %54, %42, %39
  %56 = load ptr, ptr %12, align 8, !tbaa !25
  %57 = icmp eq ptr %56, null
  br i1 %57, label %58, label %91

58:                                               ; preds = %55
  %59 = load ptr, ptr %9, align 8, !tbaa !13
  %60 = getelementptr inbounds nuw %struct.prov_cipher_ctx_st, ptr %59, i32 0, i32 11
  %61 = load i8, ptr %60, align 4
  %62 = lshr i8 %61, 2
  %63 = and i8 %62, 1
  %64 = zext i8 %63 to i32
  %65 = icmp ne i32 %64, 0
  br i1 %65, label %66, label %91

66:                                               ; preds = %58
  %67 = load ptr, ptr %9, align 8, !tbaa !13
  %68 = getelementptr inbounds nuw %struct.prov_cipher_ctx_st, ptr %67, i32 0, i32 5
  %69 = load i32, ptr %68, align 8, !tbaa !27
  %70 = icmp eq i32 %69, 2
  br i1 %70, label %81, label %71

71:                                               ; preds = %66
  %72 = load ptr, ptr %9, align 8, !tbaa !13
  %73 = getelementptr inbounds nuw %struct.prov_cipher_ctx_st, ptr %72, i32 0, i32 5
  %74 = load i32, ptr %73, align 8, !tbaa !27
  %75 = icmp eq i32 %74, 3
  br i1 %75, label %81, label %76

76:                                               ; preds = %71
  %77 = load ptr, ptr %9, align 8, !tbaa !13
  %78 = getelementptr inbounds nuw %struct.prov_cipher_ctx_st, ptr %77, i32 0, i32 5
  %79 = load i32, ptr %78, align 8, !tbaa !27
  %80 = icmp eq i32 %79, 4
  br i1 %80, label %81, label %91

81:                                               ; preds = %76, %71, %66
  %82 = load ptr, ptr %9, align 8, !tbaa !13
  %83 = getelementptr inbounds nuw %struct.prov_cipher_ctx_st, ptr %82, i32 0, i32 2
  %84 = getelementptr inbounds [16 x i8], ptr %83, i64 0, i64 0
  %85 = load ptr, ptr %9, align 8, !tbaa !13
  %86 = getelementptr inbounds nuw %struct.prov_cipher_ctx_st, ptr %85, i32 0, i32 0
  %87 = getelementptr inbounds [16 x i8], ptr %86, i64 0, i64 0
  %88 = load ptr, ptr %9, align 8, !tbaa !13
  %89 = getelementptr inbounds nuw %struct.prov_cipher_ctx_st, ptr %88, i32 0, i32 7
  %90 = load i64, ptr %89, align 8, !tbaa !28
  call void @llvm.memcpy.p0.p0.i64(ptr align 8 %84, ptr align 8 %87, i64 %90, i1 false)
  br label %91

91:                                               ; preds = %81, %76, %58, %55
  %92 = load ptr, ptr %10, align 8, !tbaa !25
  %93 = icmp ne ptr %92, null
  br i1 %93, label %94, label %134

94:                                               ; preds = %91
  %95 = load ptr, ptr %9, align 8, !tbaa !13
  %96 = getelementptr inbounds nuw %struct.prov_cipher_ctx_st, ptr %95, i32 0, i32 11
  %97 = load i8, ptr %96, align 4
  %98 = lshr i8 %97, 5
  %99 = and i8 %98, 1
  %100 = zext i8 %99 to i32
  %101 = icmp eq i32 %100, 0
  br i1 %101, label %102, label %110

102:                                              ; preds = %94
  %103 = load i64, ptr %11, align 8, !tbaa !11
  %104 = load ptr, ptr %9, align 8, !tbaa !13
  %105 = getelementptr inbounds nuw %struct.prov_cipher_ctx_st, ptr %104, i32 0, i32 6
  %106 = load i64, ptr %105, align 8, !tbaa !15
  %107 = icmp ne i64 %103, %106
  br i1 %107, label %108, label %109

108:                                              ; preds = %102
  call void @ERR_new()
  call void @ERR_set_debug(ptr noundef @.str.1, i32 noundef 218, ptr noundef @__func__.cipher_generic_init_internal)
  call void (i32, i32, ptr, ...) @ERR_set_error(i32 noundef 57, i32 noundef 105, ptr noundef null)
  store i32 0, ptr %8, align 4
  br label %138

109:                                              ; preds = %102
  br label %114

110:                                              ; preds = %94
  %111 = load i64, ptr %11, align 8, !tbaa !11
  %112 = load ptr, ptr %9, align 8, !tbaa !13
  %113 = getelementptr inbounds nuw %struct.prov_cipher_ctx_st, ptr %112, i32 0, i32 6
  store i64 %111, ptr %113, align 8, !tbaa !15
  br label %114

114:                                              ; preds = %110, %109
  %115 = load ptr, ptr %9, align 8, !tbaa !13
  %116 = getelementptr inbounds nuw %struct.prov_cipher_ctx_st, ptr %115, i32 0, i32 19
  %117 = load ptr, ptr %116, align 8, !tbaa !29
  %118 = getelementptr inbounds nuw %struct.prov_cipher_hw_st, ptr %117, i32 0, i32 0
  %119 = load ptr, ptr %118, align 8, !tbaa !30
  %120 = load ptr, ptr %9, align 8, !tbaa !13
  %121 = load ptr, ptr %10, align 8, !tbaa !25
  %122 = load ptr, ptr %9, align 8, !tbaa !13
  %123 = getelementptr inbounds nuw %struct.prov_cipher_ctx_st, ptr %122, i32 0, i32 6
  %124 = load i64, ptr %123, align 8, !tbaa !15
  %125 = call i32 %119(ptr noundef %120, ptr noundef %121, i64 noundef %124)
  %126 = icmp ne i32 %125, 0
  br i1 %126, label %128, label %127

127:                                              ; preds = %114
  store i32 0, ptr %8, align 4
  br label %138

128:                                              ; preds = %114
  %129 = load ptr, ptr %9, align 8, !tbaa !13
  %130 = getelementptr inbounds nuw %struct.prov_cipher_ctx_st, ptr %129, i32 0, i32 11
  %131 = load i8, ptr %130, align 4
  %132 = and i8 %131, -9
  %133 = or i8 %132, 8
  store i8 %133, ptr %130, align 4
  br label %134

134:                                              ; preds = %128, %91
  %135 = load ptr, ptr %9, align 8, !tbaa !13
  %136 = load ptr, ptr %14, align 8, !tbaa !7
  %137 = call i32 @ossl_cipher_generic_set_ctx_params(ptr noundef %135, ptr noundef %136)
  store i32 %137, ptr %8, align 4
  br label %138

138:                                              ; preds = %134, %127, %108, %53, %38
  %139 = load i32, ptr %8, align 4
  ret i32 %139
}