; Function Attrs: nounwind uwtable
define internal fastcc range(i32 0, 2) i32 @cipher_generic_init_internal(ptr noundef initializes((96, 104), (160, 164)) %0, ptr noundef %1, i64 noundef %2, ptr noundef readonly captures(address_is_null) %3, i64 noundef %4, ptr noundef %5, i32 noundef range(i32 0, 2) %6) unnamed_addr #1 {
  %8 = getelementptr inbounds nuw i8, ptr %0, i64 160
  store i32 0, ptr %8, align 8, !tbaa !17
  %9 = getelementptr inbounds nuw i8, ptr %0, i64 96
  store i64 0, ptr %9, align 8, !tbaa !20
  %10 = getelementptr inbounds nuw i8, ptr %0, i64 108
  %11 = load i8, ptr %10, align 4
  %12 = trunc nuw nsw i32 %6 to i8
  %13 = shl nuw nsw i8 %12, 1
  %14 = and i8 %11, -19
  %15 = or disjoint i8 %14, %13
  store i8 %15, ptr %10, align 4
  %16 = tail call i32 @ossl_prov_is_running() #6
  %.not = icmp eq i32 %16, 0
  br i1 %.not, label %59, label %17

17:                                               ; preds = %7
  %cond = icmp eq ptr %3, null
  br i1 %cond, label %29, label %18

18:                                               ; preds = %17
  %19 = getelementptr inbounds nuw i8, ptr %0, i64 64
  %20 = load i32, ptr %19, align 8, !tbaa !21
  %.not35 = icmp eq i32 %20, 1
  br i1 %.not35, label %39, label %21

21:                                               ; preds = %18
  %22 = getelementptr inbounds nuw i8, ptr %0, i64 80
  %23 = load i64, ptr %22, align 8, !tbaa !22
  %24 = icmp ne i64 %4, %23
  %25 = icmp ugt i64 %4, 16
  %or.cond.i = or i1 %25, %24
  br i1 %or.cond.i, label %ossl_cipher_generic_initiv.exit.thread, label %ossl_cipher_generic_initiv.exit

ossl_cipher_generic_initiv.exit.thread:           ; preds = %21
  tail call void @ERR_new() #6
  tail call void @ERR_set_debug(ptr noundef nonnull @.str.1, i32 noundef 707, ptr noundef nonnull @__func__.ossl_cipher_generic_initiv) #6
  tail call void (i32, i32, ptr, ...) @ERR_set_error(i32 noundef 57, i32 noundef 109, ptr noundef null) #6
  br label %59

ossl_cipher_generic_initiv.exit:                  ; preds = %21
  %26 = load i8, ptr %10, align 4
  %27 = or i8 %26, 4
  store i8 %27, ptr %10, align 4
  %28 = getelementptr inbounds nuw i8, ptr %0, i64 32
  tail call void @llvm.memcpy.p0.p0.i64(ptr nonnull align 8 %28, ptr nonnull readonly align 1 %3, i64 %4, i1 false)
  tail call void @llvm.memcpy.p0.p0.i64(ptr nonnull align 8 %0, ptr nonnull readonly align 1 %3, i64 %4, i1 false)
  br label %39

29:                                               ; preds = %17
  %30 = load i8, ptr %10, align 4
  %31 = and i8 %30, 4
  %.not37 = icmp eq i8 %31, 0
  br i1 %.not37, label %39, label %32

32:                                               ; preds = %29
  %33 = getelementptr inbounds nuw i8, ptr %0, i64 64
  %34 = load i32, ptr %33, align 8, !tbaa !21
  %.off = add i32 %34, -2
  %switch = icmp ult i32 %.off, 3
  br i1 %switch, label %35, label %39

35:                                               ; preds = %32
  %36 = getelementptr inbounds nuw i8, ptr %0, i64 32
  %37 = getelementptr inbounds nuw i8, ptr %0, i64 80
  %38 = load i64, ptr %37, align 8, !tbaa !22
  tail call void @llvm.memcpy.p0.p0.i64(ptr nonnull align 8 %36, ptr nonnull align 8 %0, i64 %38, i1 false)
  br label %39

39:                                               ; preds = %18, %ossl_cipher_generic_initiv.exit, %32, %35, %29
  %.not38 = icmp eq ptr %1, null
  br i1 %.not38, label %57, label %40

40:                                               ; preds = %39
  %41 = load i8, ptr %10, align 4
  %42 = and i8 %41, 32
  %43 = icmp eq i8 %42, 0
  %44 = getelementptr inbounds nuw i8, ptr %0, i64 72
  br i1 %43, label %45, label %48

45:                                               ; preds = %40
  %46 = load i64, ptr %44, align 8, !tbaa !11
  %.not39 = icmp eq i64 %2, %46
  br i1 %.not39, label %49, label %47

47:                                               ; preds = %45
  tail call void @ERR_new() #6
  tail call void @ERR_set_debug(ptr noundef nonnull @.str.1, i32 noundef 218, ptr noundef nonnull @__func__.cipher_generic_init_internal) #6
  tail call void (i32, i32, ptr, ...) @ERR_set_error(i32 noundef 57, i32 noundef 105, ptr noundef null) #6
  br label %59

48:                                               ; preds = %40
  store i64 %2, ptr %44, align 8, !tbaa !11
  br label %49

49:                                               ; preds = %45, %48
  %50 = getelementptr inbounds nuw i8, ptr %0, i64 168
  %51 = load ptr, ptr %50, align 8, !tbaa !23
  %52 = load ptr, ptr %51, align 8, !tbaa !24
  %53 = tail call i32 %52(ptr noundef nonnull %0, ptr noundef nonnull %1, i64 noundef %2) #6
  %.not40 = icmp eq i32 %53, 0
  br i1 %.not40, label %59, label %54

54:                                               ; preds = %49
  %55 = load i8, ptr %10, align 4
  %56 = or i8 %55, 8
  store i8 %56, ptr %10, align 4
  br label %57

57:                                               ; preds = %54, %39
  %58 = tail call i32 @ossl_cipher_generic_set_ctx_params(ptr noundef nonnull %0, ptr noundef %5)
  br label %59

59:                                               ; preds = %ossl_cipher_generic_initiv.exit.thread, %49, %7, %57, %47
  %.0 = phi i32 [ 0, %47 ], [ %58, %57 ], [ 0, %7 ], [ 0, %49 ], [ 0, %ossl_cipher_generic_initiv.exit.thread ]
  ret i32 %.0
}